Certificate:
    Data:
        Version: 3 (0x2)
        Serial Number: 6160 (0x1810)
        Signature Algorithm: sha256WithRSAEncryption
        Issuer: CN=www.modelCA.com, O=Model CA LTD., C=US
        Validity
            Not Before: Aug  3 16:27:49 2022 GMT
            Not After : Jul 31 16:27:49 2032 GMT
        Subject: C=US, O=CompSec Inc., CN=www.hunghuy2022.com
        Subject Public Key Info:
            Public Key Algorithm: rsaEncryption
                RSA Public-Key: (2048 bit)
                Modulus:
                    00:d0:33:f2:a5:c0:41:08:95:cd:df:69:97:20:6b:
                    11:a8:d1:bb:89:97:80:8d:f9:e3:d5:4f:63:53:6e:
                    39:ca:12:cf:a7:ed:28:db:83:9f:f2:0e:38:3b:48:
                    b8:c4:6e:b0:e2:7c:9d:96:84:4f:40:5b:1a:e3:4b:
                    c2:6b:e3:f7:f3:a3:3b:53:9c:b2:b1:85:75:0d:c4:
                    cb:45:44:14:11:b7:1a:d3:e3:5c:56:ba:f1:76:52:
                    8e:92:eb:fc:fe:fe:24:45:9d:1b:15:2c:9b:f0:87:
                    bb:0e:ba:23:4d:6b:3a:10:83:02:c3:f7:19:30:f6:
                    df:a7:10:e0:f8:bd:2e:fc:25:04:16:db:80:d3:b0:
                    40:45:0a:1c:72:e4:15:d0:cb:bb:4c:d5:a9:fa:58:
                    e0:f0:80:f2:d8:d3:28:44:87:2c:39:75:71:1d:dc:
                    57:50:6c:6e:69:ee:d8:a6:c5:bb:d6:06:c1:69:b7:
                    67:92:ec:f0:f8:d9:a2:23:17:d2:af:32:0d:25:98:
                    66:78:8e:00:8b:8f:76:bb:85:56:78:e0:00:04:b2:
                    89:cd:5e:6f:7f:61:65:0c:db:97:99:bc:13:c8:51:
                    44:8b:96:8e:7c:a1:3b:6a:2e:aa:97:37:bd:89:36:
                    83:e9:ac:52:32:2a:cb:95:64:72:bc:c8:b2:04:17:
                    e0:e5
                Exponent: 65537 (0x10001)
        X509v3 extensions:
            X509v3 Basic Constraints: 
                CA:FALSE
            Netscape Comment: 
                OpenSSL Generated Certificate
            X509v3 Subject Key Identifier: 
                64:C3:EB:A8:F2:D6:18:31:D0:EE:B9:FB:B1:52:5A:FA:D8:D3:1D:6C
            X509v3 Authority Key Identifier: 
                keyid:1F:A4:7E:1A:95:01:37:9F:11:9B:E7:A0:C3:9E:AC:F5:9B:CE:C6:66

            X509v3 Subject Alternative Name: 
                DNS:www.hunghuy2022.com, DNS:www.hunghuy2022A.com, DNS:www.hunghuy2022B.com
    Signature Algorithm: sha256WithRSAEncryption
         a9:de:76:5c:30:98:fd:43:5d:71:a3:74:24:03:09:6f:5d:fe:
         c6:af:93:9d:13:4e:35:d0:b3:17:17:74:79:be:ae:4d:36:b4:
         d1:49:7a:e7:a2:c8:da:23:8b:3a:85:ef:5e:4a:f4:1a:7b:36:
         12:7a:e8:4c:ba:11:b0:c3:16:5b:3a:8b:39:4c:ab:27:3b:65:
         06:19:0d:33:d8:26:29:6c:6e:fc:83:1f:73:09:e1:a0:1d:7c:
         ee:da:32:62:5c:0b:ca:cc:0c:84:74:2c:5e:29:19:f0:2c:c5:
         bb:e7:75:3c:db:e8:4c:1c:74:6c:26:32:be:71:0b:06:c9:d9:
         69:4a:df:91:8a:05:df:58:0b:be:0a:6d:7b:7c:5d:b8:69:92:
         27:24:54:0c:57:e0:9b:24:ac:75:fe:a8:d3:1f:f4:ca:d9:fb:
         87:fc:9c:bb:74:63:2d:40:5c:c2:36:5a:48:b4:93:cd:43:c2:
         df:d8:96:61:61:fb:68:6c:da:fa:7a:29:09:fd:d4:cd:1b:76:
         22:df:2c:d9:76:ed:48:a8:75:f3:5c:b8:0e:75:08:8b:96:dd:
         6d:a4:09:b0:b6:27:93:86:89:c3:63:d7:61:55:8e:ac:5a:8e:
         57:82:a8:ca:73:2c:30:1a:fe:38:02:96:22:06:42:be:11:9c:
         1f:b0:5d:90:8a:c0:e4:5d:94:93:d0:f4:94:52:4b:d0:7a:31:
         2c:81:42:f2:7a:51:a0:97:64:4b:38:58:02:b2:0a:bb:90:d4:
         a9:7b:34:8f:b5:2b:2b:68:6c:35:50:bc:eb:59:de:6f:f0:22:
         a3:99:e5:1b:c6:59:1e:55:01:a3:da:12:f7:75:77:8b:8b:ff:
         c9:c5:c5:a3:c2:f9:1d:66:7b:5f:ff:a9:1b:c9:f6:27:3d:e5:
         57:d6:4e:f6:8e:a9:a2:2e:45:0c:09:b0:67:e2:9d:82:05:a5:
         70:eb:be:cd:12:53:d9:79:97:ee:77:b9:38:1b:1a:ec:75:31:
         fe:88:c0:6f:d7:57:32:38:4e:1a:16:47:6f:3c:76:3b:6b:9e:
         ad:83:22:ef:8f:b6:53:e1:04:18:89:50:c7:01:c6:0d:81:aa:
         54:38:f6:b9:c9:ef:2e:9a:c7:8a:80:d2:d8:98:c0:bf:d9:cd:
         a1:64:7b:12:a8:71:41:6b:fd:b5:94:04:3e:d1:c7:42:11:31:
         02:26:d8:73:72:89:a9:4e:89:34:e5:ee:dd:a0:eb:8e:ef:09:
         4a:33:b0:44:b7:d8:1c:38:c0:0e:0b:5b:f1:12:2e:5a:c5:df:
         67:f2:1f:42:0a:d0:84:18:7d:3c:2f:59:bf:24:d6:b5:89:f7:
         53:e9:3e:c7:fd:71:9c:36
-----BEGIN CERTIFICATE-----
MIIExjCCAq6gAwIBAgICGBAwDQYJKoZIhvcNAQELBQAwPzEYMBYGA1UEAwwPd3d3
Lm1vZGVsQ0EuY29tMRYwFAYDVQQKDA1Nb2RlbCBDQSBMVEQuMQswCQYDVQQGEwJV
UzAeFw0yMjA4MDMxNjI3NDlaFw0zMjA3MzExNjI3NDlaMEIxCzAJBgNVBAYTAlVT
MRUwEwYDVQQKDAxDb21wU2VjIEluYy4xHDAaBgNVBAMME3d3dy5odW5naHV5MjAy
Mi5jb20wggEiMA0GCSqGSIb3DQEBAQUAA4IBDwAwggEKAoIBAQDQM/KlwEEIlc3f
aZcgaxGo0buJl4CN+ePVT2NTbjnKEs+n7Sjbg5/yDjg7SLjEbrDifJ2WhE9AWxrj
S8Jr4/fzoztTnLKxhXUNxMtFRBQRtxrT41xWuvF2Uo6S6/z+/iRFnRsVLJvwh7sO
uiNNazoQgwLD9xkw9t+nEOD4vS78JQQW24DTsEBFChxy5BXQy7tM1an6WODwgPLY
0yhEhyw5dXEd3FdQbG5p7timxbvWBsFpt2eS7PD42aIjF9KvMg0lmGZ4jgCLj3a7
hVZ44AAEsonNXm9/YWUM25eZvBPIUUSLlo58oTtqLqqXN72JNoPprFIyKsuVZHK8
yLIEF+DlAgMBAAGjgcgwgcUwCQYDVR0TBAIwADAsBglghkgBhvhCAQ0EHxYdT3Bl
blNTTCBHZW5lcmF0ZWQgQ2VydGlmaWNhdGUwHQYDVR0OBBYEFGTD66jy1hgx0O65
+7FSWvrY0x1sMB8GA1UdIwQYMBaAFB+kfhqVATefEZvnoMOerPWbzsZmMEoGA1Ud
EQRDMEGCE3d3dy5odW5naHV5MjAyMi5jb22CFHd3dy5odW5naHV5MjAyMkEuY29t
ghR3d3cuaHVuZ2h1eTIwMjJCLmNvbTANBgkqhkiG9w0BAQsFAAOCAgEAqd52XDCY
/UNdcaN0JAMJb13+xq+TnRNONdCzFxd0eb6uTTa00Ul656LI2iOLOoXvXkr0Gns2
EnroTLoRsMMWWzqLOUyrJztlBhkNM9gmKWxu/IMfcwnhoB187toyYlwLyswMhHQs
XikZ8CzFu+d1PNvoTBx0bCYyvnELBsnZaUrfkYoF31gLvgpte3xduGmSJyRUDFfg
mySsdf6o0x/0ytn7h/ycu3RjLUBcwjZaSLSTzUPC39iWYWH7aGza+nopCf3UzRt2
It8s2XbtSKh181y4DnUIi5bdbaQJsLYnk4aJw2PXYVWOrFqOV4KoynMsMBr+OAKW
IgZCvhGcH7BdkIrA5F2Uk9D0lFJL0HoxLIFC8npRoJdkSzhYArIKu5DUqXs0j7Ur
K2hsNVC861neb/Aio5nlG8ZZHlUBo9oS93V3i4v/ycXFo8L5HWZ7X/+pG8n2Jz3l
V9ZO9o6poi5FDAmwZ+KdggWlcOu+zRJT2XmX7ne5OBsa7HUx/ojAb9dXMjhOGhZH
bzx2O2uerYMi74+2U+EEGIlQxwHGDYGqVDj2ucnvLprHioDS2JjAv9nNoWR7Eqhx
QWv9tZQEPtHHQhExAibYc3KJqU6JNOXu3aDrju8JSjOwRLfYHDjADgtb8RIuWsXf
Z/IfQgrQhBh9PC9ZvyTWtYn3U+k+x/1xnDY=
-----END CERTIFICATE-----
